Certificate:
    Data:
        Version: 3 (0x2)
        Serial Number: 0 (0x0)
        Signature Algorithm: sha256WithRSAEncryption
        Issuer: C=JP, ST=Tokyo, L=edogawa, O=testCompany, OU=software, CN=my_rootCA
        Validity
            Not Before: Jul 24 08:35:06 2020 GMT
            Not After : Oct 27 08:35:06 2022 GMT
        Subject: C=JP, ST=Tokyo, O=testCompany, OU=software, CN=my_rootCA
        Subject Public Key Info:
            Public Key Algorithm: rsaEncryption
                RSA Public-Key: (2048 bit)
                Modulus:
                    00:b5:11:00:3b:e4:06:44:0d:5a:1d:5d:e1:7f:04:
                    0d:7a:7c:c3:f0:82:cb:ee:03:2c:2f:92:42:12:03:
                    b1:2c:27:5e:5f:7e:a7:13:72:38:ce:61:5e:02:69:
                    d8:c1:e1:93:3f:49:a9:15:e5:ac:e8:e7:03:d2:89:
                    cb:1c:8d:7b:f4:f3:a4:6f:2c:15:62:d6:aa:53:6b:
                    ca:dc:71:60:ff:65:c6:17:15:77:03:ac:a0:e3:cd:
                    df:7a:2a:55:06:04:a3:f2:1d:f9:bd:45:79:50:2e:
                    ff:0f:5e:3b:4c:4e:98:46:03:c0:fb:b7:37:fd:5f:
                    6c:24:00:1b:d5:5b:84:42:5b:2f:bf:45:da:2a:09:
                    22:65:3e:82:9a:f7:b9:f5:e4:56:90:a5:16:11:f3:
                    35:2c:50:cb:0c:38:3d:8d:00:ec:a3:85:53:a5:de:
                    91:b0:0f:9a:08:4b:03:0f:9e:62:1f:95:95:23:c4:
                    7b:5b:f3:bf:cc:77:80:7e:6f:7c:77:cf:33:66:f5:
                    4a:e9:ab:1b:0c:7b:07:b9:f2:a8:81:b8:e2:81:30:
                    09:23:2b:e7:5f:23:3f:9d:79:8f:db:b8:ee:df:28:
                    39:3a:36:61:92:90:96:42:50:c3:89:2c:60:43:a8:
                    c1:7b:19:b2:22:fb:b9:c0:69:3a:2d:b7:5c:82:29:
                    08:31
                Exponent: 65537 (0x10001)
        X509v3 extensions:
            X509v3 Subject Alternative Name: 
                DNS:testDomain.jp, DNS:*.testDomain.jp
            X509v3 Basic Constraints: 
                CA:FALSE
    Signature Algorithm: sha256WithRSAEncryption
         7d:18:c3:f7:ff:87:ee:f0:0c:48:01:f9:d4:9e:48:c2:0f:a1:
         11:58:d6:b5:a0:ad:0e:d3:d7:38:6a:b0:80:db:b9:58:a6:fe:
         1b:12:ea:51:82:a0:45:3b:04:33:8d:ab:11:59:cc:0d:55:ce:
         38:bd:f5:f1:64:e0:be:93:35:fe:cd:84:70:97:5e:d5:e6:c1:
         ad:e0:25:62:aa:6d:03:c5:d4:84:2b:24:d3:5f:11:7d:c4:d5:
         de:09:75:d8:4d:ee:5f:e6:ee:4f:83:6a:4f:8c:b3:79:91:2d:
         2b:28:93:da:ca:c5:d3:21:91:7c:cf:5a:c2:57:9f:1a:a9:d5:
         d9:a2:1d:c9:6a:a1:3a:cd:10:81:11:e1:0d:b6:7b:5a:f0:ae:
         ea:3a:10:30:2a:6c:65:22:8e:8d:51:1c:9a:23:a0:2c:a8:01:
         ef:2a:66:52:da:c9:27:3f:e1:cb:28:ac:d2:e2:75:ce:be:4d:
         4d:82:55:85:1e:3e:b9:70:61:cc:8b:6a:05:ae:9d:1c:53:56:
         24:16:cd:9c:c2:c4:7a:99:da:fb:ce:99:ed:20:21:f6:ce:6a:
         4d:cb:f4:e7:05:62:6c:bc:e6:79:27:ec:9a:be:71:55:b5:6b:
         be:59:1d:c5:bf:df:48:83:27:53:f4:33:60:bc:db:d1:3f:a5:
         a9:bd:7f:6f
-----BEGIN CERTIFICATE-----
MIIDeTCCAmGgAwIBAgIBADANBgkqhkiG9w0BAQsFADBsMQswCQYDVQQGEwJKUDEO
MAwGA1UECAwFVG9reW8xEDAOBgNVBAcMB2Vkb2dhd2ExFDASBgNVBAoMC3Rlc3RD
b21wYW55MREwDwYDVQQLDAhzb2Z0d2FyZTESMBAGA1UEAwwJbXlfcm9vdENBMB4X
DTIwMDcyNDA4MzUwNloXDTIyMTAyNzA4MzUwNlowWjELMAkGA1UEBhMCSlAxDjAM
BgNVBAgMBVRva3lvMRQwEgYDVQQKDAt0ZXN0Q29tcGFueTERMA8GA1UECwwIc29m
dHdhcmUxEjAQBgNVBAMMCW15X3Jvb3RDQTCCASIwDQYJKoZIhvcNAQEBBQADggEP
ADCCAQoCggEBALURADvkBkQNWh1d4X8EDXp8w/CCy+4DLC+SQhIDsSwnXl9+pxNy
OM5hXgJp2MHhkz9JqRXlrOjnA9KJyxyNe/TzpG8sFWLWqlNrytxxYP9lxhcVdwOs
oOPN33oqVQYEo/Id+b1FeVAu/w9eO0xOmEYDwPu3N/1fbCQAG9VbhEJbL79F2ioJ
ImU+gpr3ufXkVpClFhHzNSxQyww4PY0A7KOFU6XekbAPmghLAw+eYh+VlSPEe1vz
v8x3gH5vfHfPM2b1SumrGwx7B7nyqIG44oEwCSMr518jP515j9u47t8oOTo2YZKQ
lkJQw4ksYEOowXsZsiL7ucBpOi23XIIpCDECAwEAAaM4MDYwKQYDVR0RBCIwIIIN
dGVzdERvbWFpbi5qcIIPKi50ZXN0RG9tYWluLmpwMAkGA1UdEwQCMAAwDQYJKoZI
hvcNAQELBQADggEBAH0Yw/f/h+7wDEgB+dSeSMIPoRFY1rWgrQ7T1zhqsIDbuVim
/hsS6lGCoEU7BDONqxFZzA1Vzji99fFk4L6TNf7NhHCXXtXmwa3gJWKqbQPF1IQr
JNNfEX3E1d4JddhN7l/m7k+Dak+Ms3mRLSsok9rKxdMhkXzPWsJXnxqp1dmiHclq
oTrNEIER4Q22e1rwruo6EDAqbGUijo1RHJojoCyoAe8qZlLaySc/4csorNLidc6+
TU2CVYUePrlwYcyLagWunRxTViQWzZzCxHqZ2vvOme0gIfbOak3L9OcFYmy85nkn
7Jq+cVW1a75ZHcW/30iDJ1P0M2C829E/pam9f28=
-----END CERTIFICATE-----
